target datalayout = "e-m:e-p270:32:32-p271:32:32-p272:64:64-i64:64-i128:128-f80:128-n8:16:32:64-S128"
target triple = "x86_64-pc-linux-gnu"

%"class.llvm::LLT" = type { i64 }
%class.anon.274 = type <{ %"class.llvm::LLT", %"class.llvm::LLT", %"class.llvm::LLT", i8, [7 x i8] }>
%"class.llvm::ArrayRef.537" = type { ptr, i64 }
%"struct.llvm::LegalityQuery" = type { i32, %"class.llvm::ArrayRef.537", %"class.llvm::ArrayRef.542" }
%"class.llvm::ArrayRef.542" = type { ptr, i64 }

; Function Attrs: mustprogress nounwind uwtable
define linkonce_odr hidden noundef zeroext i1 @_ZNK4llvm3LLTeqERKS0_(ptr noundef nonnull align 8 dereferenceable(8) %0, ptr noundef nonnull align 8 dereferenceable(8) %1) #0 comdat align 2 {
  %3 = alloca ptr, align 8
  %4 = alloca ptr, align 8
  store ptr %0, ptr %3, align 8
  store ptr %1, ptr %4, align 8
  %5 = load ptr, ptr %3, align 8
  %6 = load i64, ptr %5, align 8
  %7 = lshr i64 %6, 1
  %8 = and i64 %7, 1
  %9 = trunc i64 %8 to i32
  %10 = load ptr, ptr %4, align 8
  %11 = load i64, ptr %10, align 8
  %12 = lshr i64 %11, 1
  %13 = and i64 %12, 1
  %14 = trunc i64 %13 to i32
  %15 = icmp eq i32 %9, %14
  br i1 %15, label %16, label %43

16:                                               ; preds = %2
  %17 = load i64, ptr %5, align 8
  %18 = lshr i64 %17, 2
  %19 = and i64 %18, 1
  %20 = trunc i64 %19 to i32
  %21 = load ptr, ptr %4, align 8
  %22 = load i64, ptr %21, align 8
  %23 = lshr i64 %22, 2
  %24 = and i64 %23, 1
  %25 = trunc i64 %24 to i32
  %26 = icmp eq i32 %20, %25
  br i1 %26, label %27, label %43

27:                                               ; preds = %16
  %28 = load i64, ptr %5, align 8
  %29 = and i64 %28, 1
  %30 = trunc i64 %29 to i32
  %31 = load ptr, ptr %4, align 8
  %32 = load i64, ptr %31, align 8
  %33 = and i64 %32, 1
  %34 = trunc i64 %33 to i32
  %35 = icmp eq i32 %30, %34
  br i1 %35, label %36, label %43

36:                                               ; preds = %27
  %37 = load ptr, ptr %4, align 8
  %38 = load i64, ptr %37, align 8
  %39 = lshr i64 %38, 3
  %40 = load i64, ptr %5, align 8
  %41 = lshr i64 %40, 3
  %42 = icmp eq i64 %39, %41
  br label %43

43:                                               ; preds = %36, %27, %16, %2
  %44 = phi i1 [ false, %27 ], [ false, %16 ], [ false, %2 ], [ %42, %36 ]
  ret i1 %44
}

; Function Attrs: mustprogress nounwind uwtable
define linkonce_odr hidden noundef nonnull align 8 dereferenceable(8) ptr @_ZNK4llvm8ArrayRefINS_3LLTEEixEm(ptr noundef nonnull align 8 dereferenceable(16) %0, i64 noundef %1) #0 comdat align 2 {
  %3 = alloca ptr, align 8
  %4 = alloca i64, align 8
  store ptr %0, ptr %3, align 8
  store i64 %1, ptr %4, align 8
  %5 = load ptr, ptr %3, align 8
  %6 = getelementptr inbounds nuw %"class.llvm::ArrayRef.537", ptr %5, i32 0, i32 0
  %7 = load ptr, ptr %6, align 8
  %8 = load i64, ptr %4, align 8
  %9 = getelementptr inbounds %"class.llvm::LLT", ptr %7, i64 %8
  ret ptr %9
}

; Function Attrs: mustprogress nounwind uwtable
define internal noundef zeroext i1 @"_ZZN4llvm20AArch64LegalizerInfoC1ERKNS_16AArch64SubtargetEENK4$_59clERKNS_13LegalityQueryE"(ptr noundef nonnull align 8 dereferenceable(25) %0, ptr noundef nonnull align 8 dereferenceable(40) %1) #0 align 2 {
  %3 = alloca ptr, align 8
  %4 = alloca ptr, align 8
  %5 = alloca ptr, align 8
  store ptr %0, ptr %3, align 8
  store ptr %1, ptr %4, align 8
  %6 = load ptr, ptr %3, align 8
  %7 = load ptr, ptr %4, align 8
  %8 = getelementptr inbounds nuw %"struct.llvm::LegalityQuery", ptr %7, i32 0, i32 1
  %9 = call noundef nonnull align 8 dereferenceable(8) ptr @_ZNK4llvm8ArrayRefINS_3LLTEEixEm(ptr noundef nonnull align 8 dereferenceable(16) %8, i64 noundef 1)
  store ptr %9, ptr %5, align 8
  %10 = load ptr, ptr %4, align 8
  %11 = getelementptr inbounds nuw %"struct.llvm::LegalityQuery", ptr %10, i32 0, i32 1
  %12 = call noundef nonnull align 8 dereferenceable(8) ptr @_ZNK4llvm8ArrayRefINS_3LLTEEixEm(ptr noundef nonnull align 8 dereferenceable(16) %11, i64 noundef 0)
  %13 = getelementptr inbounds nuw %class.anon.274, ptr %6, i32 0, i32 0
  %14 = call noundef zeroext i1 @_ZNK4llvm3LLTeqERKS0_(ptr noundef nonnull align 8 dereferenceable(8) %12, ptr noundef nonnull align 8 dereferenceable(8) %13)
  br i1 %14, label %15, label %27

15:                                               ; preds = %2
  %16 = load ptr, ptr %5, align 8
  %17 = getelementptr inbounds nuw %class.anon.274, ptr %6, i32 0, i32 1
  %18 = call noundef zeroext i1 @_ZNK4llvm3LLTeqERKS0_(ptr noundef nonnull align 8 dereferenceable(8) %16, ptr noundef nonnull align 8 dereferenceable(8) %17)
  br i1 %18, label %23, label %19

19:                                               ; preds = %15
  %20 = load ptr, ptr %5, align 8
  %21 = getelementptr inbounds nuw %class.anon.274, ptr %6, i32 0, i32 2
  %22 = call noundef zeroext i1 @_ZNK4llvm3LLTeqERKS0_(ptr noundef nonnull align 8 dereferenceable(8) %20, ptr noundef nonnull align 8 dereferenceable(8) %21)
  br i1 %22, label %23, label %27

23:                                               ; preds = %19, %15
  %24 = getelementptr inbounds nuw %class.anon.274, ptr %6, i32 0, i32 3
  %25 = load i8, ptr %24, align 8
  %26 = trunc i8 %25 to i1
  br label %27

27:                                               ; preds = %23, %19, %2
  %28 = phi i1 [ false, %19 ], [ false, %2 ], [ %26, %23 ]
  ret i1 %28
}

; Function Attrs: mustprogress nounwind uwtable
define linkonce_odr hidden noundef ptr @_ZNKSt9_Any_data9_M_accessEv(ptr noundef nonnull align 8 dereferenceable(16) %0) #0 comdat align 2 {
  %2 = alloca ptr, align 8
  store ptr %0, ptr %2, align 8
  %3 = load ptr, ptr %2, align 8
  %4 = getelementptr inbounds [16 x i8], ptr %3, i64 0, i64 0
  ret ptr %4
}

; Function Attrs: mustprogress nounwind uwtable
define internal noundef zeroext i1 @"_ZSt13__invoke_implIbRZN4llvm20AArch64LegalizerInfoC1ERKNS0_16AArch64SubtargetEE4$_59JRKNS0_13LegalityQueryEEET_St14__invoke_otherOT0_DpOT1_"(ptr noundef nonnull align 8 dereferenceable(25) %0, ptr noundef nonnull align 8 dereferenceable(40) %1) #0 {
  %3 = alloca ptr, align 8
  %4 = alloca ptr, align 8
  store ptr %0, ptr %3, align 8
  store ptr %1, ptr %4, align 8
  %5 = load ptr, ptr %3, align 8
  %6 = load ptr, ptr %4, align 8
  %7 = call noundef zeroext i1 @"_ZZN4llvm20AArch64LegalizerInfoC1ERKNS_16AArch64SubtargetEENK4$_59clERKNS_13LegalityQueryE"(ptr noundef nonnull align 8 dereferenceable(25) %5, ptr noundef nonnull align 8 dereferenceable(40) %6)
  ret i1 %7
}

; Function Attrs: mustprogress nounwind uwtable
define internal noundef nonnull align 8 dereferenceable(8) ptr @"_ZNKSt9_Any_data9_M_accessIPZN4llvm20AArch64LegalizerInfoC1ERKNS1_16AArch64SubtargetEE4$_59EERKT_v"(ptr noundef nonnull align 8 dereferenceable(16) %0) #0 align 2 {
  %2 = alloca ptr, align 8
  store ptr %0, ptr %2, align 8
  %3 = load ptr, ptr %2, align 8
  %4 = call noundef ptr @_ZNKSt9_Any_data9_M_accessEv(ptr noundef nonnull align 8 dereferenceable(16) %3) #10
  ret ptr %4
}

; Function Attrs: mustprogress nounwind uwtable
define internal noundef zeroext i1 @"_ZSt10__invoke_rIbRZN4llvm20AArch64LegalizerInfoC1ERKNS0_16AArch64SubtargetEE4$_59JRKNS0_13LegalityQueryEEENSt9enable_ifIX16is_invocable_r_vIT_T0_DpT1_EESB_E4typeEOSC_DpOSD_"(ptr noundef nonnull align 8 dereferenceable(25) %0, ptr noundef nonnull align 8 dereferenceable(40) %1) #0 {
  %3 = alloca ptr, align 8
  %4 = alloca ptr, align 8
  store ptr %0, ptr %3, align 8
  store ptr %1, ptr %4, align 8
  %5 = load ptr, ptr %3, align 8
  %6 = load ptr, ptr %4, align 8
  %7 = call noundef zeroext i1 @"_ZSt13__invoke_implIbRZN4llvm20AArch64LegalizerInfoC1ERKNS0_16AArch64SubtargetEE4$_59JRKNS0_13LegalityQueryEEET_St14__invoke_otherOT0_DpOT1_"(ptr noundef nonnull align 8 dereferenceable(25) %5, ptr noundef nonnull align 8 dereferenceable(40) %6)
  ret i1 %7
}

; Function Attrs: mustprogress nounwind uwtable
define internal noundef ptr @"_ZNSt14_Function_base13_Base_managerIZN4llvm20AArch64LegalizerInfoC1ERKNS1_16AArch64SubtargetEE4$_59E14_M_get_pointerERKSt9_Any_data"(ptr noundef nonnull align 8 dereferenceable(16) %0) #0 align 2 {
  %2 = alloca ptr, align 8
  store ptr %0, ptr %2, align 8
  %3 = load ptr, ptr %2, align 8
  %4 = call noundef nonnull align 8 dereferenceable(8) ptr @"_ZNKSt9_Any_data9_M_accessIPZN4llvm20AArch64LegalizerInfoC1ERKNS1_16AArch64SubtargetEE4$_59EERKT_v"(ptr noundef nonnull align 8 dereferenceable(16) %3) #10
  %5 = load ptr, ptr %4, align 8
  ret ptr %5
}

; Function Attrs: mustprogress nounwind uwtable
define internal noundef zeroext i1 @"_ZNSt17_Function_handlerIFbRKN4llvm13LegalityQueryEEZNS0_20AArch64LegalizerInfoC1ERKNS0_16AArch64SubtargetEE4$_59E9_M_invokeERKSt9_Any_dataS3_"(ptr noundef nonnull align 8 dereferenceable(16) %0, ptr noundef nonnull align 8 dereferenceable(40) %1) #0 align 2 {
  %3 = alloca ptr, align 8
  %4 = alloca ptr, align 8
  store ptr %0, ptr %3, align 8
  store ptr %1, ptr %4, align 8
  %5 = load ptr, ptr %3, align 8
  %6 = call noundef ptr @"_ZNSt14_Function_base13_Base_managerIZN4llvm20AArch64LegalizerInfoC1ERKNS1_16AArch64SubtargetEE4$_59E14_M_get_pointerERKSt9_Any_data"(ptr noundef nonnull align 8 dereferenceable(16) %5) #10
  %7 = load ptr, ptr %4, align 8
  %8 = call noundef zeroext i1 @"_ZSt10__invoke_rIbRZN4llvm20AArch64LegalizerInfoC1ERKNS0_16AArch64SubtargetEE4$_59JRKNS0_13LegalityQueryEEENSt9enable_ifIX16is_invocable_r_vIT_T0_DpT1_EESB_E4typeEOSC_DpOSD_"(ptr noundef nonnull align 8 dereferenceable(25) %6, ptr noundef nonnull align 8 dereferenceable(40) %7)
  ret i1 %8
}