; Function Attrs: mustprogress nofree norecurse nosync nounwind willreturn memory(read, inaccessiblemem: none) uwtable
define internal noundef zeroext i1 @"_ZNSt17_Function_handlerIFbRKN4llvm13LegalityQueryEEZNS0_20AArch64LegalizerInfoC1ERKNS0_16AArch64SubtargetEE4$_59E9_M_invokeERKSt9_Any_dataS3_"(ptr nocapture noundef nonnull readonly align 8 dereferenceable(16) %0, ptr nocapture noundef nonnull readonly align 8 dereferenceable(40) %1) #11 align 2 {
  %.val = load ptr, ptr %0, align 8
  %3 = getelementptr inbounds i8, ptr %1, i64 8
  %.val2 = load ptr, ptr %3, align 8
  %4 = load i64, ptr %.val2, align 8
  %5 = load i64, ptr %.val, align 8
  %spec.select.i.i.i.i = icmp eq i64 %4, %5
  br i1 %spec.select.i.i.i.i, label %6, label %"_ZSt10__invoke_rIbRZN4llvm20AArch64LegalizerInfoC1ERKNS0_16AArch64SubtargetEE4$_59JRKNS0_13LegalityQueryEEENSt9enable_ifIX16is_invocable_r_vIT_T0_DpT1_EESB_E4typeEOSC_DpOSD_.exit"

6:                                                ; preds = %2
  %7 = getelementptr inbounds i8, ptr %.val2, i64 8
  %8 = getelementptr inbounds nuw i8, ptr %.val, i64 8
  %9 = load i64, ptr %7, align 8
  %10 = load i64, ptr %8, align 8
  %spec.select.i5.i.i.i = icmp eq i64 %9, %10
  %11 = getelementptr inbounds nuw i8, ptr %.val, i64 16
  %12 = load i64, ptr %11, align 8
  %spec.select.i6.i.i.i = icmp eq i64 %9, %12
  %or.cond.i.i.i = select i1 %spec.select.i5.i.i.i, i1 true, i1 %spec.select.i6.i.i.i
  br i1 %or.cond.i.i.i, label %13, label %"_ZSt10__invoke_rIbRZN4llvm20AArch64LegalizerInfoC1ERKNS0_16AArch64SubtargetEE4$_59JRKNS0_13LegalityQueryEEENSt9enable_ifIX16is_invocable_r_vIT_T0_DpT1_EESB_E4typeEOSC_DpOSD_.exit"

13:                                               ; preds = %6
  %14 = getelementptr inbounds nuw i8, ptr %.val, i64 24
  %15 = load i8, ptr %14, align 8
  %16 = trunc i8 %15 to i1
  br label %"_ZSt10__invoke_rIbRZN4llvm20AArch64LegalizerInfoC1ERKNS0_16AArch64SubtargetEE4$_59JRKNS0_13LegalityQueryEEENSt9enable_ifIX16is_invocable_r_vIT_T0_DpT1_EESB_E4typeEOSC_DpOSD_.exit"

"_ZSt10__invoke_rIbRZN4llvm20AArch64LegalizerInfoC1ERKNS0_16AArch64SubtargetEE4$_59JRKNS0_13LegalityQueryEEENSt9enable_ifIX16is_invocable_r_vIT_T0_DpT1_EESB_E4typeEOSC_DpOSD_.exit": ; preds = %2, %6, %13
  %17 = phi i1 [ false, %2 ], [ %16, %13 ], [ false, %6 ]
  ret i1 %17
}